; ModuleID = '21/266.c'
source_filename = "21/266.c"
target datalayout = "e-m:e-p270:32:32-p271:32:32-p272:64:64-i64:64-f80:128-n8:16:32:64-S128"
target triple = "x86_64-pc-linux-gnu"

@.str = private unnamed_addr constant [3 x i8] c"%d\00", align 1
@.str.1 = private unnamed_addr constant [2 x i8] c",\00", align 1

; Function Attrs: noinline nounwind uwtable
define dso_local void @main() #0 {
  %1 = alloca i32, align 4
  %2 = alloca [300 x i32], align 16
  %3 = alloca [300 x i32], align 16
  %4 = alloca i32, align 4
  %5 = alloca i32, align 4
  %6 = alloca i32, align 4
  %7 = alloca i32, align 4
  %8 = alloca i32, align 4
  %9 = alloca double, align 8
  %10 = alloca double, align 8
  %11 = alloca double, align 8
  store i32 1, i32* %7, align 4
  store double 0.000000e+00, double* %9, align 8
  store double 0.000000e+00, double* %10, align 8
  %12 = call i32 (i8*, ...) @__isoc99_scanf(i8* getelementptr inbounds ([3 x i8], [3 x i8]* @.str, i64 0, i64 0), i32* %1)
  store i32 0, i32* %4, align 4
  br label %13

13:                                               ; preds = %29, %0
  %14 = load i32, i32* %4, align 4
  %15 = load i32, i32* %1, align 4
  %16 = icmp slt i32 %14, %15
  br i1 %16, label %17, label %32

17:                                               ; preds = %13
  %18 = load i32, i32* %4, align 4
  %19 = sext i32 %18 to i64
  %20 = getelementptr inbounds [300 x i32], [300 x i32]* %2, i64 0, i64 %19
  %21 = call i32 (i8*, ...) @__isoc99_scanf(i8* getelementptr inbounds ([3 x i8], [3 x i8]* @.str, i64 0, i64 0), i32* %20)
  %22 = load double, double* %9, align 8
  %23 = load i32, i32* %4, align 4
  %24 = sext i32 %23 to i64
  %25 = getelementptr inbounds [300 x i32], [300 x i32]* %2, i64 0, i64 %24
  %26 = load i32, i32* %25, align 4
  %27 = sitofp i32 %26 to double
  %28 = fadd double %22, %27
  store double %28, double* %9, align 8
  br label %29

29:                                               ; preds = %17
  %30 = load i32, i32* %4, align 4
  %31 = add nsw i32 %30, 1
  store i32 %31, i32* %4, align 4
  br label %13

32:                                               ; preds = %13
  %33 = load double, double* %9, align 8
  %34 = load i32, i32* %1, align 4
  %35 = sitofp i32 %34 to double
  %36 = fdiv double %33, %35
  store double %36, double* %9, align 8
  store i32 0, i32* %4, align 4
  br label %37

37:                                               ; preds = %67, %32
  %38 = load i32, i32* %4, align 4
  %39 = load i32, i32* %1, align 4
  %40 = icmp slt i32 %38, %39
  br i1 %40, label %41, label %70

41:                                               ; preds = %37
  %42 = load i32, i32* %4, align 4
  %43 = sext i32 %42 to i64
  %44 = getelementptr inbounds [300 x i32], [300 x i32]* %2, i64 0, i64 %43
  %45 = load i32, i32* %44, align 4
  %46 = sitofp i32 %45 to double
  %47 = load double, double* %9, align 8
  %48 = fsub double %46, %47
  %49 = call double @llvm.fabs.f64(double %48)
  store double %49, double* %11, align 8
  %50 = load double, double* %11, align 8
  %51 = load double, double* %10, align 8
  %52 = fcmp ogt double %50, %51
  br i1 %52, label %53, label %56

53:                                               ; preds = %41
  %54 = load double, double* %11, align 8
  store double %54, double* %10, align 8
  %55 = load i32, i32* %4, align 4
  store i32 %55, i32* %6, align 4
  store i32 1, i32* %5, align 4
  br label %66

56:                                               ; preds = %41
  %57 = load double, double* %11, align 8
  %58 = load double, double* %10, align 8
  %59 = fsub double %57, %58
  %60 = call double @llvm.fabs.f64(double %59)
  %61 = fcmp ole double %60, 0x3EB0C6F7A0B5ED8D
  br i1 %61, label %62, label %65

62:                                               ; preds = %56
  %63 = load i32, i32* %5, align 4
  %64 = add nsw i32 %63, 1
  store i32 %64, i32* %5, align 4
  br label %65

65:                                               ; preds = %62, %56
  br label %66

66:                                               ; preds = %65, %53
  br label %67

67:                                               ; preds = %66
  %68 = load i32, i32* %4, align 4
  %69 = add nsw i32 %68, 1
  store i32 %69, i32* %4, align 4
  br label %37

70:                                               ; preds = %37
  %71 = load i32, i32* %6, align 4
  %72 = sext i32 %71 to i64
  %73 = getelementptr inbounds [300 x i32], [300 x i32]* %2, i64 0, i64 %72
  %74 = load i32, i32* %73, align 4
  %75 = getelementptr inbounds [300 x i32], [300 x i32]* %3, i64 0, i64 0
  store i32 %74, i32* %75, align 16
  %76 = load i32, i32* %5, align 4
  %77 = icmp eq i32 %76, 1
  br i1 %77, label %78, label %84

78:                                               ; preds = %70
  %79 = load i32, i32* %6, align 4
  %80 = sext i32 %79 to i64
  %81 = getelementptr inbounds [300 x i32], [300 x i32]* %2, i64 0, i64 %80
  %82 = load i32, i32* %81, align 4
  %83 = call i32 (i8*, ...) @printf(i8* getelementptr inbounds ([3 x i8], [3 x i8]* @.str, i64 0, i64 0), i32 %82)
  br label %180

84:                                               ; preds = %70
  %85 = load i32, i32* %6, align 4
  %86 = add nsw i32 %85, 1
  store i32 %86, i32* %4, align 4
  br label %87

87:                                               ; preds = %115, %84
  %88 = load i32, i32* %4, align 4
  %89 = load i32, i32* %1, align 4
  %90 = icmp slt i32 %88, %89
  br i1 %90, label %91, label %118

91:                                               ; preds = %87
  %92 = load i32, i32* %4, align 4
  %93 = sext i32 %92 to i64
  %94 = getelementptr inbounds [300 x i32], [300 x i32]* %2, i64 0, i64 %93
  %95 = load i32, i32* %94, align 4
  %96 = sitofp i32 %95 to double
  %97 = load double, double* %9, align 8
  %98 = fsub double %96, %97
  %99 = call double @llvm.fabs.f64(double %98)
  %100 = load double, double* %10, align 8
  %101 = fsub double %99, %100
  %102 = call double @llvm.fabs.f64(double %101)
  %103 = fcmp ole double %102, 0x3EB0C6F7A0B5ED8D
  br i1 %103, label %104, label %114

104:                                              ; preds = %91
  %105 = load i32, i32* %4, align 4
  %106 = sext i32 %105 to i64
  %107 = getelementptr inbounds [300 x i32], [300 x i32]* %2, i64 0, i64 %106
  %108 = load i32, i32* %107, align 4
  %109 = load i32, i32* %7, align 4
  %110 = sext i32 %109 to i64
  %111 = getelementptr inbounds [300 x i32], [300 x i32]* %3, i64 0, i64 %110
  store i32 %108, i32* %111, align 4
  %112 = load i32, i32* %7, align 4
  %113 = add nsw i32 %112, 1
  store i32 %113, i32* %7, align 4
  br label %114

114:                                              ; preds = %104, %91
  br label %115

115:                                              ; preds = %114
  %116 = load i32, i32* %4, align 4
  %117 = add nsw i32 %116, 1
  store i32 %117, i32* %4, align 4
  br label %87

118:                                              ; preds = %87
  store i32 0, i32* %7, align 4
  br label %119

119:                                              ; preds = %155, %118
  %120 = load i32, i32* %7, align 4
  %121 = load i32, i32* %5, align 4
  %122 = icmp slt i32 %120, %121
  br i1 %122, label %123, label %158

123:                                              ; preds = %119
  %124 = load i32, i32* %7, align 4
  store i32 %124, i32* %8, align 4
  %125 = load i32, i32* %7, align 4
  %126 = add nsw i32 %125, 1
  store i32 %126, i32* %4, align 4
  br label %127

127:                                              ; preds = %144, %123
  %128 = load i32, i32* %4, align 4
  %129 = load i32, i32* %5, align 4
  %130 = icmp slt i32 %128, %129
  br i1 %130, label %131, label %147

131:                                              ; preds = %127
  %132 = load i32, i32* %8, align 4
  %133 = sext i32 %132 to i64
  %134 = getelementptr inbounds [300 x i32], [300 x i32]* %3, i64 0, i64 %133
  %135 = load i32, i32* %134, align 4
  %136 = load i32, i32* %7, align 4
  %137 = sext i32 %136 to i64
  %138 = getelementptr inbounds [300 x i32], [300 x i32]* %3, i64 0, i64 %137
  %139 = load i32, i32* %138, align 4
  %140 = icmp sgt i32 %135, %139
  br i1 %140, label %141, label %143

141:                                              ; preds = %131
  %142 = load i32, i32* %4, align 4
  store i32 %142, i32* %8, align 4
  br label %143

143:                                              ; preds = %141, %131
  br label %144

144:                                              ; preds = %143
  %145 = load i32, i32* %4, align 4
  %146 = add nsw i32 %145, 1
  store i32 %146, i32* %4, align 4
  br label %127

147:                                              ; preds = %127
  %148 = load i32, i32* %8, align 4
  %149 = sext i32 %148 to i64
  %150 = getelementptr inbounds [300 x i32], [300 x i32]* %3, i64 0, i64 %149
  %151 = load i32, i32* %150, align 4
  %152 = load i32, i32* %7, align 4
  %153 = sext i32 %152 to i64
  %154 = getelementptr inbounds [300 x i32], [300 x i32]* %3, i64 0, i64 %153
  store i32 %151, i32* %154, align 4
  br label %155

155:                                              ; preds = %147
  %156 = load i32, i32* %7, align 4
  %157 = add nsw i32 %156, 1
  store i32 %157, i32* %7, align 4
  br label %119

158:                                              ; preds = %119
  store i32 0, i32* %7, align 4
  br label %159

159:                                              ; preds = %176, %158
  %160 = load i32, i32* %7, align 4
  %161 = load i32, i32* %5, align 4
  %162 = icmp slt i32 %160, %161
  br i1 %162, label %163, label %179

163:                                              ; preds = %159
  %164 = load i32, i32* %7, align 4
  %165 = sext i32 %164 to i64
  %166 = getelementptr inbounds [300 x i32], [300 x i32]* %3, i64 0, i64 %165
  %167 = load i32, i32* %166, align 4
  %168 = call i32 (i8*, ...) @printf(i8* getelementptr inbounds ([3 x i8], [3 x i8]* @.str, i64 0, i64 0), i32 %167)
  %169 = load i32, i32* %7, align 4
  %170 = load i32, i32* %5, align 4
  %171 = sub nsw i32 %170, 1
  %172 = icmp slt i32 %169, %171
  br i1 %172, label %173, label %175

173:                                              ; preds = %163
  %174 = call i32 (i8*, ...) @printf(i8* getelementptr inbounds ([2 x i8], [2 x i8]* @.str.1, i64 0, i64 0))
  br label %175

175:                                              ; preds = %173, %163
  br label %176

176:                                              ; preds = %175
  %177 = load i32, i32* %7, align 4
  %178 = add nsw i32 %177, 1
  store i32 %178, i32* %7, align 4
  br label %159

179:                                              ; preds = %159
  br label %180

180:                                              ; preds = %179, %78
  ret void
}

declare dso_local i32 @__isoc99_scanf(i8*, ...) #1

; Function Attrs: nounwind readnone speculatable willreturn
declare double @llvm.fabs.f64(double) #2

declare dso_local i32 @printf(i8*, ...) #1


!llvm.module.flags = !{!0}
!llvm.ident = !{!1}

!0 = !{i32 1, !"wchar_size", i32 4}
!1 = !{!"clang version 10.0.0-4ubuntu1 "}
